; Function Attrs: mustprogress uwtable
define void @_ZNK6casadi6Concat11reset_inputEv(ptr noundef nonnull align 8 dereferenceable(64) %0) unnamed_addr #3 align 2 {
  %2 = tail call noundef i64 @_ZNK6casadi6MXNode5n_depEv(ptr noundef nonnull align 8 dereferenceable(64) %0)
  %3 = icmp sgt i64 %2, 0
  br i1 %3, label %.lr.ph, label %._crit_edge

.lr.ph:                                           ; preds = %1
  %4 = getelementptr inbounds i8, ptr %0, i64 32
  %5 = getelementptr inbounds i8, ptr %0, i64 40
  br label %6

6:                                                ; preds = %.lr.ph, %_ZNK6casadi6MXNode3depEx.exit
  %.04 = phi i64 [ 0, %.lr.ph ], [ %19, %_ZNK6casadi6MXNode3depEx.exit ]
  %7 = load ptr, ptr %5, align 8
  %8 = load ptr, ptr %4, align 8
  %9 = ptrtoint ptr %7 to i64
  %10 = ptrtoint ptr %8 to i64
  %11 = sub i64 %9, %10
  %12 = ashr exact i64 %11, 3
  %.not.i.i.i = icmp ugt i64 %12, %.04
  br i1 %.not.i.i.i, label %_ZNK6casadi6MXNode3depEx.exit, label %13

13:                                               ; preds = %6
  tail call void (ptr, ...) @_ZSt24__throw_out_of_range_fmtPKcz(ptr noundef nonnull @.str.27, i64 noundef %.04, i64 noundef %12) #19
  unreachable

_ZNK6casadi6MXNode3depEx.exit:                    ; preds = %6
  %14 = getelementptr inbounds %"class.casadi::MX", ptr %8, i64 %.04
  %15 = tail call noundef ptr @_ZNK6casadi2MXptEv(ptr noundef nonnull align 8 dereferenceable(8) %14)
  %16 = load ptr, ptr %15, align 8
  %17 = getelementptr inbounds i8, ptr %16, i64 256
  %18 = load ptr, ptr %17, align 8
  tail call void %18(ptr noundef nonnull align 8 dereferenceable(64) %15)
  %19 = add nuw nsw i64 %.04, 1
  %20 = tail call noundef i64 @_ZNK6casadi6MXNode5n_depEv(ptr noundef nonnull align 8 dereferenceable(64) %0)
  %21 = icmp slt i64 %19, %20
  br i1 %21, label %6, label %._crit_edge, !llvm.loop !54

._crit_edge:                                      ; preds = %_ZNK6casadi6MXNode3depEx.exit, %1
  ret void
}